target datalayout = "e-m:e-p270:32:32-p271:32:32-p272:64:64-i64:64-i128:128-f80:128-n8:16:32:64-S128"
target triple = "x86_64-unknown-linux-gnu"

%class.ptr_vector = type { %class.vector }
%class.vector = type { ptr }
%class.svector.1 = type { %class.vector.2 }
%class.vector.2 = type { ptr }
%"class.euf::justification" = type { i32, %union.anon.42, %union.anon.43 }
%union.anon.42 = type { ptr }
%union.anon.43 = type { ptr }
%"class.euf::enode_args" = type { ptr }
%"class.euf::enode" = type { ptr, i8, i8, i8, i8, i8, i8, i8, i8, i8, i32, i32, i32, i32, i32, i32, %class.ptr_vector, ptr, ptr, ptr, ptr, %class.id_var_list, %"class.euf::justification", %"class.euf::justification", i32, i8, %class.approx_set, %class.approx_set, [0 x ptr] }
%class.id_var_list = type { i32, ptr }
%class.approx_set = type { %class.approx_set_tpl.265 }
%class.approx_set_tpl.265 = type { i64 }
%class.top_sort = type { ptr, %class.svector.1, %class.svector.1, %class.ptr_vector, %class.ptr_vector, %class.ptr_vector, i32, %class.ptr_vector.266, %class.ptr_vector }
%class.ptr_vector.266 = type { %class.vector.267 }
%class.vector.267 = type { ptr }
%class.ast = type { i32, i24, i32, i32 }
%class.core_hashtable.270 = type <{ ptr, i32, i32, i32, [4 x i8] }>
%class.obj_hash_entry = type { ptr }
%struct.obj_ptr_hash.271 = type { i8 }
%struct.ptr_eq.272 = type { i8 }

; Function Attrs: mustprogress nounwind uwtable
define linkonce_odr hidden void @_ZN14obj_hash_entryIN3euf5enodeEEC2Ev(ptr noundef nonnull align 8 dereferenceable(8) %this) unnamed_addr #4 comdat align 2 {
entry:
  %this.addr = alloca ptr, align 8
  store ptr %this, ptr %this.addr, align 8
  %this1 = load ptr, ptr %this.addr, align 8
  %m_ptr = getelementptr inbounds %class.obj_hash_entry, ptr %this1, i32 0, i32 0
  store ptr null, ptr %m_ptr, align 8
  ret void
}

; Function Attrs: mustprogress uwtable
define linkonce_odr hidden noalias noundef ptr @_Z10alloc_vectI14obj_hash_entryIN3euf5enodeEEEPT_j(i32 noundef %sz) #5 comdat {
entry:
  %sz.addr = alloca i32, align 4
  %r = alloca ptr, align 8
  %curr = alloca ptr, align 8
  %i = alloca i32, align 4
  store i32 %sz, ptr %sz.addr, align 4
  %0 = load i32, ptr %sz.addr, align 4
  %conv = zext i32 %0 to i64
  %mul = mul i64 8, %conv
  %call = call noalias noundef ptr @_ZN6memory8allocateEm(i64 noundef %mul)
  store ptr %call, ptr %r, align 8
  %1 = load ptr, ptr %r, align 8
  store ptr %1, ptr %curr, align 8
  store i32 0, ptr %i, align 4
  br label %for.cond

for.cond:                                         ; preds = %for.inc, %entry
  %2 = load i32, ptr %i, align 4
  %3 = load i32, ptr %sz.addr, align 4
  %cmp = icmp ult i32 %2, %3
  br i1 %cmp, label %for.body, label %for.end

for.body:                                         ; preds = %for.cond
  %4 = load ptr, ptr %curr, align 8
  call void @llvm.memset.p0.i64(ptr align 8 %4, i8 0, i64 8, i1 false)
  call void @_ZN14obj_hash_entryIN3euf5enodeEEC2Ev(ptr noundef nonnull align 8 dereferenceable(8) %4) #3
  br label %for.inc

for.inc:                                          ; preds = %for.body
  %5 = load i32, ptr %i, align 4
  %inc = add i32 %5, 1
  store i32 %inc, ptr %i, align 4
  %6 = load ptr, ptr %curr, align 8
  %incdec.ptr = getelementptr inbounds %class.obj_hash_entry, ptr %6, i32 1
  store ptr %incdec.ptr, ptr %curr, align 8
  br label %for.cond, !llvm.loop !35

for.end:                                          ; preds = %for.cond
  %7 = load ptr, ptr %r, align 8
  ret ptr %7
}

; Function Attrs: mustprogress nounwind uwtable
define linkonce_odr hidden noundef i32 @_ZNK3ast6get_idEv(ptr noundef nonnull align 4 dereferenceable(16) %this) #4 comdat align 2 {
entry:
  %this.addr = alloca ptr, align 8
  store ptr %this, ptr %this.addr, align 8
  %this1 = load ptr, ptr %this.addr, align 8
  %m_id = getelementptr inbounds %class.ast, ptr %this1, i32 0, i32 0
  %0 = load i32, ptr %m_id, align 4
  ret i32 %0
}

; Function Attrs: mustprogress uwtable
define linkonce_odr hidden noundef ptr @_ZN14core_hashtableI14obj_hash_entryIN3euf5enodeEE12obj_ptr_hashIS2_E6ptr_eqIS2_EE11alloc_tableEj(ptr noundef nonnull align 8 dereferenceable(20) %this, i32 noundef %size) #5 comdat align 2 {
entry:
  %this.addr = alloca ptr, align 8
  %size.addr = alloca i32, align 4
  %entries = alloca ptr, align 8
  store ptr %this, ptr %this.addr, align 8
  store i32 %size, ptr %size.addr, align 4
  %0 = load i32, ptr %size.addr, align 4
  %call = call noalias noundef ptr @_Z10alloc_vectI14obj_hash_entryIN3euf5enodeEEEPT_j(i32 noundef %0)
  store ptr %call, ptr %entries, align 8
  %1 = load ptr, ptr %entries, align 8
  ret ptr %1
}

; Function Attrs: mustprogress nounwind uwtable
define linkonce_odr hidden noundef i32 @_ZNK6vectorIP13obj_hashtableIN3euf5enodeEELb0EjE4sizeEv(ptr noundef nonnull align 8 dereferenceable(8) %this) #4 comdat align 2 {
entry:
  %retval = alloca i32, align 4
  %this.addr = alloca ptr, align 8
  store ptr %this, ptr %this.addr, align 8
  %this1 = load ptr, ptr %this.addr, align 8
  %m_data = getelementptr inbounds %class.vector.267, ptr %this1, i32 0, i32 0
  %0 = load ptr, ptr %m_data, align 8
  %cmp = icmp eq ptr %0, null
  br i1 %cmp, label %if.then, label %if.end

if.then:                                          ; preds = %entry
  store i32 0, ptr %retval, align 4
  br label %return

if.end:                                           ; preds = %entry
  %m_data2 = getelementptr inbounds %class.vector.267, ptr %this1, i32 0, i32 0
  %1 = load ptr, ptr %m_data2, align 8
  %arrayidx = getelementptr inbounds i32, ptr %1, i64 -1
  %2 = load i32, ptr %arrayidx, align 4
  store i32 %2, ptr %retval, align 4
  br label %return

return:                                           ; preds = %if.end, %if.then
  %3 = load i32, ptr %retval, align 4
  ret i32 %3
}

; Function Attrs: mustprogress nounwind uwtable
define linkonce_odr hidden noundef i32 @_ZNK4expr12get_small_idEv(ptr noundef nonnull align 4 dereferenceable(16) %this) #4 comdat align 2 {
entry:
  %this.addr = alloca ptr, align 8
  store ptr %this, ptr %this.addr, align 8
  %this1 = load ptr, ptr %this.addr, align 8
  %call = call noundef i32 @_ZNK3ast6get_idEv(ptr noundef nonnull align 4 dereferenceable(16) %this1)
  ret i32 %call
}

; Function Attrs: mustprogress uwtable
define linkonce_odr hidden void @_ZN14core_hashtableI14obj_hash_entryIN3euf5enodeEE12obj_ptr_hashIS2_E6ptr_eqIS2_EEC2EjRKS5_RKS7_(ptr noundef nonnull align 8 dereferenceable(20) %this, i32 noundef %initial_capacity, ptr noundef nonnull align 1 dereferenceable(1) %h, ptr noundef nonnull align 1 dereferenceable(1) %e) unnamed_addr #5 comdat align 2 {
entry:
  %this.addr = alloca ptr, align 8
  %initial_capacity.addr = alloca i32, align 4
  %h.addr = alloca ptr, align 8
  %e.addr = alloca ptr, align 8
  store ptr %this, ptr %this.addr, align 8
  store i32 %initial_capacity, ptr %initial_capacity.addr, align 4
  store ptr %h, ptr %h.addr, align 8
  store ptr %e, ptr %e.addr, align 8
  %this1 = load ptr, ptr %this.addr, align 8
  %0 = load i32, ptr %initial_capacity.addr, align 4
  %call = call noundef ptr @_ZN14core_hashtableI14obj_hash_entryIN3euf5enodeEE12obj_ptr_hashIS2_E6ptr_eqIS2_EE11alloc_tableEj(ptr noundef nonnull align 8 dereferenceable(20) %this1, i32 noundef %0)
  %m_table = getelementptr inbounds %class.core_hashtable.270, ptr %this1, i32 0, i32 0
  store ptr %call, ptr %m_table, align 8
  %1 = load i32, ptr %initial_capacity.addr, align 4
  %m_capacity = getelementptr inbounds %class.core_hashtable.270, ptr %this1, i32 0, i32 1
  store i32 %1, ptr %m_capacity, align 8
  %m_size = getelementptr inbounds %class.core_hashtable.270, ptr %this1, i32 0, i32 2
  store i32 0, ptr %m_size, align 4
  %m_num_deleted = getelementptr inbounds %class.core_hashtable.270, ptr %this1, i32 0, i32 3
  store i32 0, ptr %m_num_deleted, align 8
  ret void
}

; Function Attrs: mustprogress nounwind uwtable
define linkonce_odr hidden noundef ptr @_ZN8top_sortIN3euf5enodeEE7del_tagEP13obj_hashtableIS1_E(ptr noundef %t) #4 comdat align 2 {
entry:
  %t.addr = alloca ptr, align 8
  store ptr %t, ptr %t.addr, align 8
  %0 = load ptr, ptr %t.addr, align 8
  %1 = ptrtoint ptr %0 to i64
  %and = and i64 %1, -8
  %2 = inttoptr i64 %and to ptr
  ret ptr %2
}

; Function Attrs: mustprogress uwtable
define linkonce_odr hidden noundef nonnull align 8 dereferenceable(8) ptr @_ZNK6vectorIP13obj_hashtableIN3euf5enodeEELb0EjE3getEjRKS4_(ptr noundef nonnull align 8 dereferenceable(8) %this, i32 noundef %idx, ptr noundef nonnull align 8 dereferenceable(8) %d) #5 comdat align 2 {
entry:
  %retval = alloca ptr, align 8
  %this.addr = alloca ptr, align 8
  %idx.addr = alloca i32, align 4
  %d.addr = alloca ptr, align 8
  store ptr %this, ptr %this.addr, align 8
  store i32 %idx, ptr %idx.addr, align 4
  store ptr %d, ptr %d.addr, align 8
  %this1 = load ptr, ptr %this.addr, align 8
  %0 = load i32, ptr %idx.addr, align 4
  %call = call noundef i32 @_ZNK6vectorIP13obj_hashtableIN3euf5enodeEELb0EjE4sizeEv(ptr noundef nonnull align 8 dereferenceable(8) %this1)
  %cmp = icmp uge i32 %0, %call
  br i1 %cmp, label %if.then, label %if.end

if.then:                                          ; preds = %entry
  %1 = load ptr, ptr %d.addr, align 8
  store ptr %1, ptr %retval, align 8
  br label %return

if.end:                                           ; preds = %entry
  %m_data = getelementptr inbounds %class.vector.267, ptr %this1, i32 0, i32 0
  %2 = load ptr, ptr %m_data, align 8
  %3 = load i32, ptr %idx.addr, align 4
  %idxprom = zext i32 %3 to i64
  %arrayidx = getelementptr inbounds ptr, ptr %2, i64 %idxprom
  store ptr %arrayidx, ptr %retval, align 8
  br label %return

return:                                           ; preds = %if.end, %if.then
  %4 = load ptr, ptr %retval, align 8
  ret ptr %4
}

; Function Attrs: mustprogress uwtable
define linkonce_odr hidden noundef i32 @_ZNK3euf5enode12get_small_idEv(ptr noundef nonnull align 8 dereferenceable(176) %this) #5 comdat align 2 {
entry:
  %this.addr = alloca ptr, align 8
  store ptr %this, ptr %this.addr, align 8
  %this1 = load ptr, ptr %this.addr, align 8
  %m_expr = getelementptr inbounds %"class.euf::enode", ptr %this1, i32 0, i32 0
  %0 = load ptr, ptr %m_expr, align 8
  %call = call noundef i32 @_ZNK4expr12get_small_idEv(ptr noundef nonnull align 4 dereferenceable(16) %0)
  ret i32 %call
}

; Function Attrs: mustprogress uwtable
define linkonce_odr hidden void @_ZN14core_hashtableI14obj_hash_entryIN3euf5enodeEE12obj_ptr_hashIS2_E6ptr_eqIS2_EE6insertERKPS2_(ptr noundef nonnull align 8 dereferenceable(20) %this, ptr noundef nonnull align 8 dereferenceable(8) %e) #5 comdat align 2 {
entry:
  %this.addr = alloca ptr, align 8
  %e.addr = alloca ptr, align 8
  %tmp = alloca ptr, align 8
  store ptr %this, ptr %this.addr, align 8
  store ptr %e, ptr %e.addr, align 8
  %this1 = load ptr, ptr %this.addr, align 8
  %0 = load ptr, ptr %e.addr, align 8
  %1 = load ptr, ptr %0, align 8
  store ptr %1, ptr %tmp, align 8
  call void @_ZN14core_hashtableI14obj_hash_entryIN3euf5enodeEE12obj_ptr_hashIS2_E6ptr_eqIS2_EE6insertEOPS2_(ptr noundef nonnull align 8 dereferenceable(20) %this1, ptr noundef nonnull align 8 dereferenceable(8) %tmp)
  ret void
}

; Function Attrs: mustprogress uwtable
define linkonce_odr hidden void @_ZN13obj_hashtableIN3euf5enodeEEC2Ej(ptr noundef nonnull align 8 dereferenceable(20) %this, i32 noundef %initial_capacity) unnamed_addr #5 comdat align 2 {
entry:
  %this.addr = alloca ptr, align 8
  %initial_capacity.addr = alloca i32, align 4
  %ref.tmp = alloca %struct.obj_ptr_hash.271, align 1
  %ref.tmp2 = alloca %struct.ptr_eq.272, align 1
  store ptr %this, ptr %this.addr, align 8
  store i32 %initial_capacity, ptr %initial_capacity.addr, align 4
  %this1 = load ptr, ptr %this.addr, align 8
  %0 = load i32, ptr %initial_capacity.addr, align 4
  call void @_ZN14core_hashtableI14obj_hash_entryIN3euf5enodeEE12obj_ptr_hashIS2_E6ptr_eqIS2_EEC2EjRKS5_RKS7_(ptr noundef nonnull align 8 dereferenceable(20) %this1, i32 noundef %0, ptr noundef nonnull align 1 dereferenceable(1) %ref.tmp, ptr noundef nonnull align 1 dereferenceable(1) %ref.tmp2)
  ret void
}

; Function Attrs: mustprogress uwtable
define linkonce_odr hidden noundef ptr @_ZNK8top_sortIN3euf5enodeEE7get_depEPS1_(ptr noundef nonnull align 8 dereferenceable(72) %this, ptr noundef %t) #5 comdat align 2 {
entry:
  %this.addr = alloca ptr, align 8
  %t.addr = alloca ptr, align 8
  %ref.tmp = alloca ptr, align 8
  store ptr %this, ptr %this.addr, align 8
  store ptr %t, ptr %t.addr, align 8
  %this1 = load ptr, ptr %this.addr, align 8
  %m_deps = getelementptr inbounds %class.top_sort, ptr %this1, i32 0, i32 7
  %0 = load ptr, ptr %t.addr, align 8
  %call = call noundef i32 @_ZNK3euf5enode12get_small_idEv(ptr noundef nonnull align 8 dereferenceable(176) %0)
  store ptr null, ptr %ref.tmp, align 8
  %call2 = call noundef nonnull align 8 dereferenceable(8) ptr @_ZNK6vectorIP13obj_hashtableIN3euf5enodeEELb0EjE3getEjRKS4_(ptr noundef nonnull align 8 dereferenceable(8) %m_deps, i32 noundef %call, ptr noundef nonnull align 8 dereferenceable(8) %ref.tmp)
  %1 = load ptr, ptr %call2, align 8
  %call3 = call noundef ptr @_ZN8top_sortIN3euf5enodeEE7del_tagEP13obj_hashtableIS1_E(ptr noundef %1)
  ret ptr %call3
}

; Function Attrs: mustprogress uwtable
define linkonce_odr hidden void @_ZN8top_sortIN3euf5enodeEE3addEPS1_S3_(ptr noundef nonnull align 8 dereferenceable(72) %this, ptr noundef %t, ptr noundef %s) #5 comdat align 2 {
entry:
  %this.addr = alloca ptr, align 8
  %t.addr = alloca ptr, align 8
  %s.addr = alloca ptr, align 8
  %tb = alloca ptr, align 8
  store ptr %this, ptr %this.addr, align 8
  store ptr %t, ptr %t.addr, align 8
  store ptr %s, ptr %s.addr, align 8
  %this1 = load ptr, ptr %this.addr, align 8
  %0 = load ptr, ptr %t.addr, align 8
  %call = call noundef ptr @_ZNK8top_sortIN3euf5enodeEE7get_depEPS1_(ptr noundef nonnull align 8 dereferenceable(72) %this1, ptr noundef %0)
  store ptr %call, ptr %tb, align 8
  %1 = load ptr, ptr %tb, align 8
  %tobool = icmp ne ptr %1, null
  br i1 %tobool, label %if.end, label %if.then

if.then:                                          ; preds = %entry
  %call2 = call noalias noundef ptr @_ZN6memory8allocateEm(i64 noundef 24)
  call void @_ZN13obj_hashtableIN3euf5enodeEEC2Ej(ptr noundef nonnull align 8 dereferenceable(20) %call2, i32 noundef 8)
  store ptr %call2, ptr %tb, align 8
  %2 = load ptr, ptr %t.addr, align 8
  %3 = load ptr, ptr %tb, align 8
  call void @_ZN8top_sortIN3euf5enodeEE6insertEPS1_P13obj_hashtableIS1_E(ptr noundef nonnull align 8 dereferenceable(72) %this1, ptr noundef %2, ptr noundef %3)
  br label %if.end

if.end:                                           ; preds = %if.then, %entry
  %4 = load ptr, ptr %tb, align 8
  call void @_ZN14core_hashtableI14obj_hash_entryIN3euf5enodeEE12obj_ptr_hashIS2_E6ptr_eqIS2_EE6insertERKPS2_(ptr noundef nonnull align 8 dereferenceable(20) %4, ptr noundef nonnull align 8 dereferenceable(8) %s.addr)
  ret void
}

; Function Attrs: mustprogress nounwind uwtable
define linkonce_odr hidden noundef ptr @_ZNK3euf10enode_args3endEv(ptr noundef nonnull align 8 dereferenceable(8) %this) #4 comdat align 2 {
entry:
  %this.addr = alloca ptr, align 8
  store ptr %this, ptr %this.addr, align 8
  %this1 = load ptr, ptr %this.addr, align 8
  %n = getelementptr inbounds %"class.euf::enode_args", ptr %this1, i32 0, i32 0
  %0 = load ptr, ptr %n, align 8
  %m_args = getelementptr inbounds %"class.euf::enode", ptr %0, i32 0, i32 28
  %arraydecay = getelementptr inbounds [0 x ptr], ptr %m_args, i64 0, i64 0
  %n2 = getelementptr inbounds %"class.euf::enode_args", ptr %this1, i32 0, i32 0
  %1 = load ptr, ptr %n2, align 8
  %call = call noundef i32 @_ZNK3euf5enode8num_argsEv(ptr noundef nonnull align 8 dereferenceable(176) %1)
  %idx.ext = zext i32 %call to i64
  %add.ptr = getelementptr inbounds ptr, ptr %arraydecay, i64 %idx.ext
  ret ptr %add.ptr
}

; Function Attrs: mustprogress nounwind uwtable
define linkonce_odr hidden noundef ptr @_ZNK3euf10enode_args5beginEv(ptr noundef nonnull align 8 dereferenceable(8) %this) #4 comdat align 2 {
entry:
  %this.addr = alloca ptr, align 8
  store ptr %this, ptr %this.addr, align 8
  %this1 = load ptr, ptr %this.addr, align 8
  %n = getelementptr inbounds %"class.euf::enode_args", ptr %this1, i32 0, i32 0
  %0 = load ptr, ptr %n, align 8
  %m_args = getelementptr inbounds %"class.euf::enode", ptr %0, i32 0, i32 28
  %arraydecay = getelementptr inbounds [0 x ptr], ptr %m_args, i64 0, i64 0
  ret ptr %arraydecay
}

; Function Attrs: mustprogress nounwind uwtable
define linkonce_odr hidden void @_ZN3euf10enode_argsC2EPKNS_5enodeE(ptr noundef nonnull align 8 dereferenceable(8) %this, ptr noundef %_n) unnamed_addr #4 comdat align 2 {
entry:
  %this.addr = alloca ptr, align 8
  %_n.addr = alloca ptr, align 8
  store ptr %this, ptr %this.addr, align 8
  store ptr %_n, ptr %_n.addr, align 8
  %this1 = load ptr, ptr %this.addr, align 8
  %n = getelementptr inbounds %"class.euf::enode_args", ptr %this1, i32 0, i32 0
  %0 = load ptr, ptr %_n.addr, align 8
  store ptr %0, ptr %n, align 8
  ret void
}

; Function Attrs: mustprogress nounwind uwtable
define linkonce_odr hidden noundef i32 @_ZNK3euf5enode8num_argsEv(ptr noundef nonnull align 8 dereferenceable(176) %this) #4 comdat align 2 {
entry:
  %this.addr = alloca ptr, align 8
  store ptr %this, ptr %this.addr, align 8
  %this1 = load ptr, ptr %this.addr, align 8
  %m_num_args = getelementptr inbounds %"class.euf::enode", ptr %this1, i32 0, i32 24
  %0 = load i32, ptr %m_num_args, align 8
  ret i32 %0
}

; Function Attrs: mustprogress uwtable
define hidden noundef zeroext i1 @_ZN6recfun6solver7add_depEPN3euf5enodeER8top_sortIS2_E(ptr noundef nonnull align 8 dereferenceable(268) %this, ptr noundef %n, ptr noundef nonnull align 8 dereferenceable(72) %dep) unnamed_addr #5 align 2 {
entry:
  %this.addr = alloca ptr, align 8
  %n.addr = alloca ptr, align 8
  %dep.addr = alloca ptr, align 8
  %__range1 = alloca ptr, align 8
  %ref.tmp = alloca %"class.euf::enode_args", align 8
  %__begin1 = alloca ptr, align 8
  %__end1 = alloca ptr, align 8
  %k = alloca ptr, align 8
  store ptr %this, ptr %this.addr, align 8
  store ptr %n, ptr %n.addr, align 8
  store ptr %dep, ptr %dep.addr, align 8
  %0 = load ptr, ptr %n.addr, align 8
  %call = call noundef i32 @_ZNK3euf5enode8num_argsEv(ptr noundef nonnull align 8 dereferenceable(176) %0)
  %cmp = icmp eq i32 %call, 0
  br i1 %cmp, label %if.then, label %if.end

if.then:                                          ; preds = %entry
  %1 = load ptr, ptr %dep.addr, align 8
  %2 = load ptr, ptr %n.addr, align 8
  call void @_ZN8top_sortIN3euf5enodeEE6insertEPS1_P13obj_hashtableIS1_E(ptr noundef nonnull align 8 dereferenceable(72) %1, ptr noundef %2, ptr noundef null)
  br label %if.end

if.end:                                           ; preds = %if.then, %entry
  %3 = load ptr, ptr %n.addr, align 8
  call void @_ZN3euf10enode_argsC2EPKNS_5enodeE(ptr noundef nonnull align 8 dereferenceable(8) %ref.tmp, ptr noundef %3)
  store ptr %ref.tmp, ptr %__range1, align 8
  %4 = load ptr, ptr %__range1, align 8
  %call2 = call noundef ptr @_ZNK3euf10enode_args5beginEv(ptr noundef nonnull align 8 dereferenceable(8) %4)
  store ptr %call2, ptr %__begin1, align 8
  %5 = load ptr, ptr %__range1, align 8
  %call3 = call noundef ptr @_ZNK3euf10enode_args3endEv(ptr noundef nonnull align 8 dereferenceable(8) %5)
  store ptr %call3, ptr %__end1, align 8
  br label %for.cond

for.cond:                                         ; preds = %for.inc, %if.end
  %6 = load ptr, ptr %__begin1, align 8
  %7 = load ptr, ptr %__end1, align 8
  %cmp4 = icmp ne ptr %6, %7
  br i1 %cmp4, label %for.body, label %for.end

for.body:                                         ; preds = %for.cond
  %8 = load ptr, ptr %__begin1, align 8
  %9 = load ptr, ptr %8, align 8
  store ptr %9, ptr %k, align 8
  %10 = load ptr, ptr %dep.addr, align 8
  %11 = load ptr, ptr %n.addr, align 8
  %12 = load ptr, ptr %k, align 8
  call void @_ZN8top_sortIN3euf5enodeEE3addEPS1_S3_(ptr noundef nonnull align 8 dereferenceable(72) %10, ptr noundef %11, ptr noundef %12)
  br label %for.inc

for.inc:                                          ; preds = %for.body
  %13 = load ptr, ptr %__begin1, align 8
  %incdec.ptr = getelementptr inbounds ptr, ptr %13, i32 1
  store ptr %incdec.ptr, ptr %__begin1, align 8
  br label %for.cond

for.end:                                          ; preds = %for.cond
  ret i1 true
}