; Function Attrs: mustprogress uwtable
define hidden noundef zeroext i1 @_ZN6recfun6solver7add_depEPN3euf5enodeER8top_sortIS2_E(ptr nocapture nonnull readnone align 8 %this, ptr noundef %n, ptr noundef nonnull align 8 dereferenceable(72) %dep) unnamed_addr #3 align 2 {
entry:
  %tmp.i.i = alloca ptr, align 8
  %m_num_args.i = getelementptr inbounds i8, ptr %n, i64 152
  %0 = load i32, ptr %m_num_args.i, align 8
  %cmp = icmp eq i32 %0, 0
  br i1 %cmp, label %if.end, label %for.body.lr.ph

if.end:                                           ; preds = %entry
  tail call void @_ZN8top_sortIN3euf5enodeEE6insertEPS1_P13obj_hashtableIS1_E(ptr noundef nonnull align 8 dereferenceable(72) %dep, ptr noundef nonnull %n, ptr noundef null)
  %.pre = load i32, ptr %m_num_args.i, align 8
  %cmp4.not10 = icmp eq i32 %.pre, 0
  br i1 %cmp4.not10, label %for.end, label %for.body.lr.ph

for.body.lr.ph:                                   ; preds = %entry, %if.end
  %add.ptr.i.idx13.pn.in.in = phi i32 [ %.pre, %if.end ], [ %0, %entry ]
  %add.ptr.i.idx13.pn.in = zext i32 %add.ptr.i.idx13.pn.in.in to i64
  %add.ptr.i.idx13.pn = shl nuw nsw i64 %add.ptr.i.idx13.pn.in, 3
  %.pn = getelementptr i8, ptr %n, i64 %add.ptr.i.idx13.pn
  %add.ptr.i.ptr16 = getelementptr i8, ptr %.pn, i64 176
  %m_args.i.ptr = getelementptr inbounds i8, ptr %n, i64 176
  %m_deps.i.i = getelementptr inbounds i8, ptr %dep, i64 56
  br label %for.body

for.body:                                         ; preds = %for.body.lr.ph, %_ZN8top_sortIN3euf5enodeEE3addEPS1_S3_.exit
  %__begin1.011 = phi ptr [ %m_args.i.ptr, %for.body.lr.ph ], [ %incdec.ptr, %_ZN8top_sortIN3euf5enodeEE3addEPS1_S3_.exit ]
  %1 = load ptr, ptr %__begin1.011, align 8
  %2 = load ptr, ptr %m_deps.i.i, align 8
  %cmp.i.i.i.i = icmp eq ptr %2, null
  br i1 %cmp.i.i.i.i, label %if.then.i, label %_ZNK6vectorIP13obj_hashtableIN3euf5enodeEELb0EjE3getEjRKS4_.exit.i.i

_ZNK6vectorIP13obj_hashtableIN3euf5enodeEELb0EjE3getEjRKS4_.exit.i.i: ; preds = %for.body
  %3 = load ptr, ptr %n, align 8
  %4 = load i32, ptr %3, align 4
  %arrayidx.i.i.i.i = getelementptr inbounds i8, ptr %2, i64 -4
  %5 = load i32, ptr %arrayidx.i.i.i.i, align 4
  %cmp.not.i.i.i = icmp ugt i32 %5, %4
  br i1 %cmp.not.i.i.i, label %_ZNK8top_sortIN3euf5enodeEE7get_depEPS1_.exit.i, label %if.then.i

_ZNK8top_sortIN3euf5enodeEE7get_depEPS1_.exit.i:  ; preds = %_ZNK6vectorIP13obj_hashtableIN3euf5enodeEELb0EjE3getEjRKS4_.exit.i.i
  %idxprom.i.i.i = zext i32 %4 to i64
  %arrayidx.i.i.i = getelementptr inbounds ptr, ptr %2, i64 %idxprom.i.i.i
  %.then.val.i.i = load ptr, ptr %arrayidx.i.i.i, align 8
  %6 = ptrtoint ptr %.then.val.i.i to i64
  %7 = and i64 %6, -8
  %8 = inttoptr i64 %7 to ptr
  %tobool.not.i = icmp eq i64 %7, 0
  br i1 %tobool.not.i, label %if.then.i, label %_ZN8top_sortIN3euf5enodeEE3addEPS1_S3_.exit

if.then.i:                                        ; preds = %_ZNK8top_sortIN3euf5enodeEE7get_depEPS1_.exit.i, %_ZNK6vectorIP13obj_hashtableIN3euf5enodeEELb0EjE3getEjRKS4_.exit.i.i, %for.body
  %call2.i = call noalias noundef ptr @_ZN6memory8allocateEm(i64 noundef 24)
  %call.i.i.i.i.i = call noalias noundef ptr @_ZN6memory8allocateEm(i64 noundef 64)
  call void @llvm.memset.p0.i64(ptr noundef nonnull align 8 dereferenceable(64) %call.i.i.i.i.i, i8 0, i64 64, i1 false)
  store ptr %call.i.i.i.i.i, ptr %call2.i, align 8
  %m_capacity.i.i.i = getelementptr inbounds i8, ptr %call2.i, i64 8
  store i32 8, ptr %m_capacity.i.i.i, align 8
  %m_size.i.i.i = getelementptr inbounds i8, ptr %call2.i, i64 12
  store i32 0, ptr %m_size.i.i.i, align 4
  %m_num_deleted.i.i.i = getelementptr inbounds i8, ptr %call2.i, i64 16
  store i32 0, ptr %m_num_deleted.i.i.i, align 8
  call void @_ZN8top_sortIN3euf5enodeEE6insertEPS1_P13obj_hashtableIS1_E(ptr noundef nonnull align 8 dereferenceable(72) %dep, ptr noundef %n, ptr noundef nonnull %call2.i)
  br label %_ZN8top_sortIN3euf5enodeEE3addEPS1_S3_.exit

_ZN8top_sortIN3euf5enodeEE3addEPS1_S3_.exit:      ; preds = %_ZNK8top_sortIN3euf5enodeEE7get_depEPS1_.exit.i, %if.then.i
  %tb.0.i = phi ptr [ %8, %_ZNK8top_sortIN3euf5enodeEE7get_depEPS1_.exit.i ], [ %call2.i, %if.then.i ]
  call void @llvm.lifetime.start.p0(i64 8, ptr nonnull %tmp.i.i)
  store ptr %1, ptr %tmp.i.i, align 8
  call void @_ZN14core_hashtableI14obj_hash_entryIN3euf5enodeEE12obj_ptr_hashIS2_E6ptr_eqIS2_EE6insertEOPS2_(ptr noundef nonnull align 8 dereferenceable(20) %tb.0.i, ptr noundef nonnull align 8 dereferenceable(8) %tmp.i.i)
  call void @llvm.lifetime.end.p0(i64 8, ptr nonnull %tmp.i.i)
  %incdec.ptr = getelementptr inbounds i8, ptr %__begin1.011, i64 8
  %cmp4.not = icmp eq ptr %incdec.ptr, %add.ptr.i.ptr16
  br i1 %cmp4.not, label %for.end, label %for.body

for.end:                                          ; preds = %_ZN8top_sortIN3euf5enodeEE3addEPS1_S3_.exit, %if.end
  ret i1 true
}